target datalayout = "e-m:e-p270:32:32-p271:32:32-p272:64:64-i64:64-i128:128-f80:128-n8:16:32:64-S128"
target triple = "x86_64-pc-linux-gnu"

%struct.cbb_buffer_st = type { ptr, i64, i64, i8 }
%struct.cbb_st = type { ptr, ptr, i64, i8, i8, i8 }

; Function Attrs: nounwind uwtable
define hidden i32 @CBB_did_write(ptr noundef %0, i64 noundef %1) #0 {
  %3 = alloca i32, align 4
  %4 = alloca ptr, align 8
  %5 = alloca i64, align 8
  %6 = alloca i64, align 8
  %7 = alloca i32, align 4
  store ptr %0, ptr %4, align 8, !tbaa !6
  store i64 %1, ptr %5, align 8, !tbaa !11
  call void @llvm.lifetime.start.p0(i64 8, ptr %6) #7
  %8 = load ptr, ptr %4, align 8, !tbaa !6
  %9 = getelementptr inbounds nuw %struct.cbb_st, ptr %8, i32 0, i32 0
  %10 = load ptr, ptr %9, align 8, !tbaa !22
  %11 = getelementptr inbounds nuw %struct.cbb_buffer_st, ptr %10, i32 0, i32 1
  %12 = load i64, ptr %11, align 8, !tbaa !19
  %13 = load i64, ptr %5, align 8, !tbaa !11
  %14 = add i64 %12, %13
  store i64 %14, ptr %6, align 8, !tbaa !11
  %15 = load ptr, ptr %4, align 8, !tbaa !6
  %16 = getelementptr inbounds nuw %struct.cbb_st, ptr %15, i32 0, i32 1
  %17 = load ptr, ptr %16, align 8, !tbaa !29
  %18 = icmp ne ptr %17, null
  br i1 %18, label %35, label %19

19:                                               ; preds = %2
  %20 = load i64, ptr %6, align 8, !tbaa !11
  %21 = load ptr, ptr %4, align 8, !tbaa !6
  %22 = getelementptr inbounds nuw %struct.cbb_st, ptr %21, i32 0, i32 0
  %23 = load ptr, ptr %22, align 8, !tbaa !22
  %24 = getelementptr inbounds nuw %struct.cbb_buffer_st, ptr %23, i32 0, i32 1
  %25 = load i64, ptr %24, align 8, !tbaa !19
  %26 = icmp ult i64 %20, %25
  br i1 %26, label %35, label %27

27:                                               ; preds = %19
  %28 = load i64, ptr %6, align 8, !tbaa !11
  %29 = load ptr, ptr %4, align 8, !tbaa !6
  %30 = getelementptr inbounds nuw %struct.cbb_st, ptr %29, i32 0, i32 0
  %31 = load ptr, ptr %30, align 8, !tbaa !22
  %32 = getelementptr inbounds nuw %struct.cbb_buffer_st, ptr %31, i32 0, i32 2
  %33 = load i64, ptr %32, align 8, !tbaa !20
  %34 = icmp ugt i64 %28, %33
  br i1 %34, label %35, label %36

35:                                               ; preds = %27, %19, %2
  store i32 0, ptr %3, align 4
  store i32 1, ptr %7, align 4
  br label %42

36:                                               ; preds = %27
  %37 = load i64, ptr %6, align 8, !tbaa !11
  %38 = load ptr, ptr %4, align 8, !tbaa !6
  %39 = getelementptr inbounds nuw %struct.cbb_st, ptr %38, i32 0, i32 0
  %40 = load ptr, ptr %39, align 8, !tbaa !22
  %41 = getelementptr inbounds nuw %struct.cbb_buffer_st, ptr %40, i32 0, i32 1
  store i64 %37, ptr %41, align 8, !tbaa !19
  store i32 1, ptr %3, align 4
  store i32 1, ptr %7, align 4
  br label %42

42:                                               ; preds = %36, %35
  call void @llvm.lifetime.end.p0(i64 8, ptr %6) #7
  %43 = load i32, ptr %3, align 4
  ret i32 %43
}