; Function Attrs: mustprogress nofree norecurse nosync nounwind willreturn memory(readwrite, inaccessiblemem: none) uwtable
define hidden range(i32 0, 2) i32 @CBB_did_write(ptr noundef readonly captures(none) %0, i64 noundef %1) local_unnamed_addr #11 {
  %3 = load ptr, ptr %0, align 8, !tbaa !16
  %4 = getelementptr inbounds nuw i8, ptr %3, i64 8
  %5 = load i64, ptr %4, align 8, !tbaa !13
  %6 = add i64 %5, %1
  %7 = getelementptr inbounds nuw i8, ptr %0, i64 8
  %8 = load ptr, ptr %7, align 8, !tbaa !23
  %.not = icmp ne ptr %8, null
  %9 = icmp ult i64 %6, %5
  %or.cond = select i1 %.not, i1 true, i1 %9
  br i1 %or.cond, label %15, label %10

10:                                               ; preds = %2
  %11 = getelementptr inbounds nuw i8, ptr %3, i64 16
  %12 = load i64, ptr %11, align 8, !tbaa !14
  %13 = icmp ugt i64 %6, %12
  br i1 %13, label %15, label %14

14:                                               ; preds = %10
  store i64 %6, ptr %4, align 8, !tbaa !13
  br label %15

15:                                               ; preds = %2, %10, %14
  %.0 = phi i32 [ 1, %14 ], [ 0, %10 ], [ 0, %2 ]
  ret i32 %.0
}